target datalayout = "e-m:e-p270:32:32-p271:32:32-p272:64:64-i64:64-i128:128-f80:128-n8:16:32:64-S128"
target triple = "x86_64-pc-linux-gnu"

%struct._address = type { i32, i32, ptr, ptr }

@.str = private unnamed_addr constant [13 x i8] c"<No address>\00", align 1

; Function Attrs: inlinehint nounwind null_pointer_is_valid sspstrong uwtable
define internal void @set_address(ptr noundef %0, i32 noundef %1, i32 noundef %2, ptr noundef %3) #5 {
  %5 = alloca ptr, align 8
  %6 = alloca i32, align 4
  %7 = alloca i32, align 4
  %8 = alloca ptr, align 8
  store ptr %0, ptr %5, align 8
  store i32 %1, ptr %6, align 4
  store i32 %2, ptr %7, align 4
  store ptr %3, ptr %8, align 8
  %9 = load i32, ptr %7, align 4
  %10 = icmp eq i32 %9, 0
  br i1 %10, label %11, label %14

11:                                               ; preds = %4
  br label %12

12:                                               ; preds = %11
  br label %13

13:                                               ; preds = %12
  br label %19

14:                                               ; preds = %4
  br label %15

15:                                               ; preds = %14
  br label %16

16:                                               ; preds = %15
  br label %17

17:                                               ; preds = %16
  br label %18

18:                                               ; preds = %17
  br label %19

19:                                               ; preds = %18, %13
  %20 = load i32, ptr %6, align 4
  %21 = load ptr, ptr %5, align 8
  %22 = getelementptr inbounds nuw %struct._address, ptr %21, i32 0, i32 0
  store i32 %20, ptr %22, align 8
  %23 = load i32, ptr %7, align 4
  %24 = load ptr, ptr %5, align 8
  %25 = getelementptr inbounds nuw %struct._address, ptr %24, i32 0, i32 1
  store i32 %23, ptr %25, align 4
  %26 = load ptr, ptr %8, align 8
  %27 = load ptr, ptr %5, align 8
  %28 = getelementptr inbounds nuw %struct._address, ptr %27, i32 0, i32 2
  store ptr %26, ptr %28, align 8
  %29 = load ptr, ptr %5, align 8
  %30 = getelementptr inbounds nuw %struct._address, ptr %29, i32 0, i32 3
  store ptr null, ptr %30, align 8
  ret void
}

; Function Attrs: null_pointer_is_valid sspstrong uwtable
define internal ptr @arpproaddr_to_str(ptr noundef %0, ptr noundef %1, i32 noundef %2, i16 noundef zeroext %3) #0 {
  %5 = alloca ptr, align 8
  %6 = alloca ptr, align 8
  %7 = alloca ptr, align 8
  %8 = alloca i32, align 4
  %9 = alloca i16, align 2
  %10 = alloca %struct._address, align 8
  %11 = alloca i32, align 4
  store ptr %0, ptr %6, align 8
  store ptr %1, ptr %7, align 8
  store i32 %2, ptr %8, align 4
  store i16 %3, ptr %9, align 2
  call void @llvm.lifetime.start.p0(i64 24, ptr %10) #11
  %12 = load i32, ptr %8, align 4
  %13 = icmp eq i32 %12, 0
  br i1 %13, label %14, label %15

14:                                               ; preds = %4
  store ptr @.str, ptr %5, align 8
  store i32 1, ptr %11, align 4
  br label %47

15:                                               ; preds = %4
  %16 = load i16, ptr %9, align 2
  %17 = zext i16 %16 to i32
  %18 = icmp eq i32 %17, 2048
  br i1 %18, label %23, label %19

19:                                               ; preds = %15
  %20 = load i16, ptr %9, align 2
  %21 = zext i16 %20 to i32
  %22 = icmp eq i32 %21, 204
  br i1 %22, label %23, label %30

23:                                               ; preds = %19, %15
  %24 = load i32, ptr %8, align 4
  %25 = icmp eq i32 %24, 4
  br i1 %25, label %26, label %30

26:                                               ; preds = %23
  %27 = load ptr, ptr %7, align 8
  call void @set_address(ptr noundef %10, i32 noundef 2, i32 noundef 4, ptr noundef %27)
  %28 = load ptr, ptr %6, align 8
  %29 = call ptr @address_to_str(ptr noundef %28, ptr noundef %10)
  store ptr %29, ptr %5, align 8
  store i32 1, ptr %11, align 4
  br label %47

30:                                               ; preds = %23, %19
  %31 = load i16, ptr %9, align 2
  %32 = zext i16 %31 to i32
  %33 = icmp eq i32 %32, 3
  br i1 %33, label %34, label %41

34:                                               ; preds = %30
  %35 = load i32, ptr %8, align 4
  %36 = icmp eq i32 %35, 7
  br i1 %36, label %37, label %41

37:                                               ; preds = %34
  %38 = load ptr, ptr %7, align 8
  call void @set_address(ptr noundef %10, i32 noundef 10, i32 noundef 7, ptr noundef %38)
  %39 = load ptr, ptr %6, align 8
  %40 = call ptr @address_to_str(ptr noundef %39, ptr noundef %10)
  store ptr %40, ptr %5, align 8
  store i32 1, ptr %11, align 4
  br label %47

41:                                               ; preds = %34, %30
  %42 = load ptr, ptr %6, align 8
  %43 = load ptr, ptr %7, align 8
  %44 = load i32, ptr %8, align 4
  %45 = sext i32 %44 to i64
  %46 = call ptr @bytes_to_str_maxlen(ptr noundef %42, ptr noundef %43, i64 noundef %45, i64 noundef 36)
  store ptr %46, ptr %5, align 8
  store i32 1, ptr %11, align 4
  br label %47

47:                                               ; preds = %41, %37, %26, %14
  call void @llvm.lifetime.end.p0(i64 24, ptr %10) #11
  %48 = load ptr, ptr %5, align 8
  ret ptr %48
}

; Function Attrs: null_pointer_is_valid sspstrong uwtable
define internal ptr @tvb_arpproaddr_to_str(ptr noundef %0, ptr noundef %1, i32 noundef %2, i32 noundef %3, i16 noundef zeroext %4) #0 {
  %6 = alloca ptr, align 8
  %7 = alloca ptr, align 8
  %8 = alloca i32, align 4
  %9 = alloca i32, align 4
  %10 = alloca i16, align 2
  %11 = alloca ptr, align 8
  store ptr %0, ptr %6, align 8
  store ptr %1, ptr %7, align 8
  store i32 %2, ptr %8, align 4
  store i32 %3, ptr %9, align 4
  store i16 %4, ptr %10, align 2
  call void @llvm.lifetime.start.p0(i64 8, ptr %11) #11
  %12 = load ptr, ptr %6, align 8
  %13 = load ptr, ptr %7, align 8
  %14 = load i32, ptr %8, align 4
  %15 = load i32, ptr %9, align 4
  %16 = sext i32 %15 to i64
  %17 = call ptr @tvb_memdup(ptr noundef %12, ptr noundef %13, i32 noundef %14, i64 noundef %16)
  store ptr %17, ptr %11, align 8
  %18 = load ptr, ptr %6, align 8
  %19 = load ptr, ptr %11, align 8
  %20 = load i32, ptr %9, align 4
  %21 = load i16, ptr %10, align 2
  %22 = call ptr @arpproaddr_to_str(ptr noundef %18, ptr noundef %19, i32 noundef %20, i16 noundef zeroext %21)
  call void @llvm.lifetime.end.p0(i64 8, ptr %11) #11
  ret ptr %22
}