; Function Attrs: null_pointer_is_valid sspstrong uwtable
define internal fastcc ptr @tvb_arpproaddr_to_str(ptr noundef %0, ptr noundef %1, i32 noundef %2, i32 noundef %3, i16 noundef zeroext %4) unnamed_addr #0 {
  %6 = alloca %struct._address, align 8
  %7 = sext i32 %3 to i64
  %8 = tail call ptr @tvb_memdup(ptr noundef %0, ptr noundef %1, i32 noundef %2, i64 noundef %7)
  call void @llvm.lifetime.start.p0(i64 24, ptr nonnull %6) #10
  %9 = icmp eq i32 %3, 0
  br i1 %9, label %arpproaddr_to_str.exit, label %10

10:                                               ; preds = %5
  %11 = icmp eq i16 %4, 2048
  %12 = icmp eq i16 %4, 204
  %or.cond.i = or i1 %11, %12
  %13 = icmp eq i32 %3, 4
  %or.cond4.i = and i1 %13, %or.cond.i
  br i1 %or.cond4.i, label %14, label %19

14:                                               ; preds = %10
  store i32 2, ptr %6, align 8
  %15 = getelementptr inbounds nuw i8, ptr %6, i64 4
  store i32 4, ptr %15, align 4
  %16 = getelementptr inbounds nuw i8, ptr %6, i64 8
  store ptr %8, ptr %16, align 8
  %17 = getelementptr inbounds nuw i8, ptr %6, i64 16
  store ptr null, ptr %17, align 8
  %18 = call ptr @address_to_str(ptr noundef %0, ptr noundef nonnull %6)
  br label %arpproaddr_to_str.exit

19:                                               ; preds = %10
  %20 = icmp eq i16 %4, 3
  %21 = icmp eq i32 %3, 7
  %or.cond6.i = and i1 %21, %20
  br i1 %or.cond6.i, label %22, label %27

22:                                               ; preds = %19
  store i32 10, ptr %6, align 8
  %23 = getelementptr inbounds nuw i8, ptr %6, i64 4
  store i32 7, ptr %23, align 4
  %24 = getelementptr inbounds nuw i8, ptr %6, i64 8
  store ptr %8, ptr %24, align 8
  %25 = getelementptr inbounds nuw i8, ptr %6, i64 16
  store ptr null, ptr %25, align 8
  %26 = call ptr @address_to_str(ptr noundef %0, ptr noundef nonnull %6)
  br label %arpproaddr_to_str.exit

27:                                               ; preds = %19
  %28 = tail call ptr @bytes_to_str_maxlen(ptr noundef %0, ptr noundef %8, i64 noundef %7, i64 noundef 36)
  br label %arpproaddr_to_str.exit

arpproaddr_to_str.exit:                           ; preds = %5, %14, %22, %27
  %.0.i = phi ptr [ %18, %14 ], [ %26, %22 ], [ %28, %27 ], [ @.str, %5 ]
  call void @llvm.lifetime.end.p0(i64 24, ptr nonnull %6) #10
  ret ptr %.0.i
}